target datalayout = "e-m:e-p270:32:32-p271:32:32-p272:64:64-i64:64-i128:128-f80:128-n8:16:32:64-S128"
target triple = "x86_64-pc-linux-gnu"

%"struct.duckdb_zstd::ZSTD_customMem" = type { ptr, ptr, ptr }
%"struct.duckdb_zstd::ZSTD_frameParameters" = type { i32, i32, i32 }
%"struct.duckdb_zstd::ZSTD_compressionParameters" = type { i32, i32, i32, i32, i32, i32, i32 }
%"struct.duckdb_zstd::ZSTD_CCtx_s" = type { i32, i32, i32, %"struct.duckdb_zstd::ZSTD_CCtx_params_s", %"struct.duckdb_zstd::ZSTD_CCtx_params_s", %"struct.duckdb_zstd::ZSTD_CCtx_params_s", i32, i64, %"struct.duckdb_zstd::ZSTD_cwksp", i64, i64, i64, i64, %"struct.duckdb_zstd::XXH64_state_s", %"struct.duckdb_zstd::ZSTD_customMem", ptr, i64, %"struct.duckdb_zstd::SeqCollector", i32, i32, %"struct.duckdb_zstd::seqStore_t", %"struct.duckdb_zstd::ldmState_t", ptr, i64, %"struct.duckdb_zstd::rawSeqStore_t", %"struct.duckdb_zstd::ZSTD_blockState_t", ptr, i32, ptr, i64, i64, i64, i64, ptr, i64, i64, i64, i32, i32, %"struct.duckdb_zstd::ZSTD_inBuffer_s", i64, i64, %"struct.duckdb_zstd::ZSTD_localDict", ptr, %"struct.duckdb_zstd::ZSTD_prefixDict_s", i64, %"struct.duckdb_zstd::ZSTD_blockSplitCtx", ptr, i64 }
%"struct.duckdb_zstd::ZSTD_CCtx_params_s" = type { i32, %"struct.duckdb_zstd::ZSTD_compressionParameters", %"struct.duckdb_zstd::ZSTD_frameParameters", i32, i32, i64, i32, i32, i32, i32, i64, i32, i32, %"struct.duckdb_zstd::ldmParams_t", i32, i32, i32, i32, i32, i32, i32, i32, %"struct.duckdb_zstd::ZSTD_customMem", i32, i32, ptr, ptr, i64, i32 }
%"struct.duckdb_zstd::ldmParams_t" = type { i32, i32, i32, i32, i32, i32 }
%"struct.duckdb_zstd::ZSTD_cwksp" = type { ptr, ptr, ptr, ptr, ptr, ptr, ptr, i8, i32, i32, i32 }
%"struct.duckdb_zstd::XXH64_state_s" = type { i64, i64, i64, i64, i64, [4 x i64], i32, [2 x i32] }
%"struct.duckdb_zstd::SeqCollector" = type { i32, ptr, i64, i64 }
%"struct.duckdb_zstd::seqStore_t" = type { ptr, ptr, ptr, ptr, ptr, ptr, ptr, i64, i64, i32, i32 }
%"struct.duckdb_zstd::ldmState_t" = type { %"struct.duckdb_zstd::ZSTD_window_t", ptr, i32, ptr, [64 x i64], [64 x %"struct.duckdb_zstd::ldmMatchCandidate_t"] }
%"struct.duckdb_zstd::ZSTD_window_t" = type { ptr, ptr, ptr, i32, i32, i32 }
%"struct.duckdb_zstd::ldmMatchCandidate_t" = type { ptr, i32, i32, ptr }
%"struct.duckdb_zstd::rawSeqStore_t" = type { ptr, i64, i64, i64, i64 }
%"struct.duckdb_zstd::ZSTD_blockState_t" = type { ptr, ptr, %"struct.duckdb_zstd::ZSTD_matchState_t" }
%"struct.duckdb_zstd::ZSTD_matchState_t" = type { %"struct.duckdb_zstd::ZSTD_window_t", i32, i32, i32, i32, ptr, [8 x i32], i64, i32, ptr, ptr, ptr, i32, i32, %"struct.duckdb_zstd::optState_t", ptr, %"struct.duckdb_zstd::ZSTD_compressionParameters", ptr, i32, i32 }
%"struct.duckdb_zstd::optState_t" = type { ptr, ptr, ptr, ptr, ptr, ptr, i32, i32, i32, i32, i32, i32, i32, i32, i32, ptr, i32 }
%"struct.duckdb_zstd::ZSTD_inBuffer_s" = type { ptr, i64, i64 }
%"struct.duckdb_zstd::ZSTD_localDict" = type { ptr, ptr, i64, i32, ptr }
%"struct.duckdb_zstd::ZSTD_prefixDict_s" = type { ptr, i64, i32 }
%"struct.duckdb_zstd::ZSTD_blockSplitCtx" = type { %"struct.duckdb_zstd::seqStore_t", %"struct.duckdb_zstd::seqStore_t", %"struct.duckdb_zstd::seqStore_t", %"struct.duckdb_zstd::seqStore_t", %"struct.duckdb_zstd::seqStore_t", [196 x i32], %"struct.duckdb_zstd::ZSTD_entropyCTablesMetadata_t" }
%"struct.duckdb_zstd::ZSTD_entropyCTablesMetadata_t" = type { %"struct.duckdb_zstd::ZSTD_hufCTablesMetadata_t", %"struct.duckdb_zstd::ZSTD_fseCTablesMetadata_t" }
%"struct.duckdb_zstd::ZSTD_hufCTablesMetadata_t" = type { i32, [128 x i8], i64 }
%"struct.duckdb_zstd::ZSTD_fseCTablesMetadata_t" = type { i32, i32, i32, [133 x i8], i64, i64 }
%"struct.duckdb_zstd::ZSTD_compressedBlockState_t" = type { %"struct.duckdb_zstd::ZSTD_entropyCTables_t", [3 x i32] }
%"struct.duckdb_zstd::ZSTD_entropyCTables_t" = type { %"struct.duckdb_zstd::ZSTD_hufCTables_t", %"struct.duckdb_zstd::ZSTD_fseCTables_t" }
%"struct.duckdb_zstd::ZSTD_hufCTables_t" = type { [257 x i64], i32 }
%"struct.duckdb_zstd::ZSTD_fseCTables_t" = type { [193 x i32], [363 x i32], [329 x i32], i32, i32, i32 }
%"struct.duckdb_zstd::ZSTD_CDict_s" = type { ptr, i64, i32, ptr, %"struct.duckdb_zstd::ZSTD_cwksp", %"struct.duckdb_zstd::ZSTD_matchState_t", %"struct.duckdb_zstd::ZSTD_compressedBlockState_t", %"struct.duckdb_zstd::ZSTD_customMem", i32, i32, i32 }

; Function Attrs: inlinehint mustprogress uwtable
define internal void @_ZN11duckdb_zstdL15ZSTD_cwksp_freeEPNS_10ZSTD_cwkspENS_14ZSTD_customMemE(ptr noundef %0, ptr noundef byval(%"struct.duckdb_zstd::ZSTD_customMem") align 8 %1) #4 {
  %3 = alloca ptr, align 8
  %4 = alloca ptr, align 8
  %5 = alloca %"struct.duckdb_zstd::ZSTD_customMem", align 8
  store ptr %0, ptr %3, align 8, !tbaa !8
  call void @llvm.lifetime.start.p0(i64 8, ptr %4) #16
  %6 = load ptr, ptr %3, align 8, !tbaa !8
  %7 = getelementptr inbounds nuw %"struct.duckdb_zstd::ZSTD_cwksp", ptr %6, i32 0, i32 0
  %8 = load ptr, ptr %7, align 8, !tbaa !67
  store ptr %8, ptr %4, align 8, !tbaa !8
  br label %9

9:                                                ; preds = %2
  br label %10

10:                                               ; preds = %9
  br label %11

11:                                               ; preds = %10
  %12 = load ptr, ptr %3, align 8, !tbaa !8
  call void @llvm.memset.p0.i64(ptr align 8 %12, i8 0, i64 72, i1 false)
  %13 = load ptr, ptr %4, align 8, !tbaa !8
  call void @llvm.memcpy.p0.p0.i64(ptr align 8 %5, ptr align 8 %1, i64 24, i1 false), !tbaa.struct !7
  call void @_ZN11duckdb_zstdL15ZSTD_customFreeEPvNS_14ZSTD_customMemE(ptr noundef %13, ptr noundef byval(%"struct.duckdb_zstd::ZSTD_customMem") align 8 %5)
  call void @llvm.lifetime.end.p0(i64 8, ptr %4) #16
  ret void
}

; Function Attrs: inlinehint mustprogress nounwind uwtable
define internal noundef i32 @_ZN11duckdb_zstdL22ZSTD_cwksp_owns_bufferEPKNS_10ZSTD_cwkspEPKv(ptr noundef %0, ptr noundef %1) #6 {
  %3 = alloca ptr, align 8
  %4 = alloca ptr, align 8
  store ptr %0, ptr %3, align 8, !tbaa !8
  store ptr %1, ptr %4, align 8, !tbaa !8
  %5 = load ptr, ptr %4, align 8, !tbaa !8
  %6 = icmp ne ptr %5, null
  br i1 %6, label %7, label %19

7:                                                ; preds = %2
  %8 = load ptr, ptr %3, align 8, !tbaa !8
  %9 = getelementptr inbounds nuw %"struct.duckdb_zstd::ZSTD_cwksp", ptr %8, i32 0, i32 0
  %10 = load ptr, ptr %9, align 8, !tbaa !67
  %11 = load ptr, ptr %4, align 8, !tbaa !8
  %12 = icmp ule ptr %10, %11
  br i1 %12, label %13, label %19

13:                                               ; preds = %7
  %14 = load ptr, ptr %4, align 8, !tbaa !8
  %15 = load ptr, ptr %3, align 8, !tbaa !8
  %16 = getelementptr inbounds nuw %"struct.duckdb_zstd::ZSTD_cwksp", ptr %15, i32 0, i32 1
  %17 = load ptr, ptr %16, align 8, !tbaa !68
  %18 = icmp ult ptr %14, %17
  br label %19

19:                                               ; preds = %13, %7, %2
  %20 = phi i1 [ false, %7 ], [ false, %2 ], [ %18, %13 ]
  %21 = zext i1 %20 to i32
  ret i32 %21
}

; Function Attrs: mustprogress uwtable
define noundef i64 @_ZN11duckdb_zstd14ZSTD_freeCDictEPNS_12ZSTD_CDict_sE(ptr noundef %0) #2 {
  %2 = alloca i64, align 8
  %3 = alloca ptr, align 8
  %4 = alloca %"struct.duckdb_zstd::ZSTD_customMem", align 8
  %5 = alloca i32, align 4
  %6 = alloca %"struct.duckdb_zstd::ZSTD_customMem", align 8
  %7 = alloca %"struct.duckdb_zstd::ZSTD_customMem", align 8
  store ptr %0, ptr %3, align 8, !tbaa !92
  %8 = load ptr, ptr %3, align 8, !tbaa !92
  %9 = icmp eq ptr %8, null
  br i1 %9, label %10, label %11

10:                                               ; preds = %1
  store i64 0, ptr %2, align 8
  br label %25

11:                                               ; preds = %1
  call void @llvm.lifetime.start.p0(i64 24, ptr %4) #16
  %12 = load ptr, ptr %3, align 8, !tbaa !92
  %13 = getelementptr inbounds nuw %"struct.duckdb_zstd::ZSTD_CDict_s", ptr %12, i32 0, i32 7
  call void @llvm.memcpy.p0.p0.i64(ptr align 8 %4, ptr align 8 %13, i64 24, i1 false), !tbaa.struct !7
  call void @llvm.lifetime.start.p0(i64 4, ptr %5) #16
  %14 = load ptr, ptr %3, align 8, !tbaa !92
  %15 = getelementptr inbounds nuw %"struct.duckdb_zstd::ZSTD_CDict_s", ptr %14, i32 0, i32 4
  %16 = load ptr, ptr %3, align 8, !tbaa !92
  %17 = call noundef i32 @_ZN11duckdb_zstdL22ZSTD_cwksp_owns_bufferEPKNS_10ZSTD_cwkspEPKv(ptr noundef %15, ptr noundef %16)
  store i32 %17, ptr %5, align 4, !tbaa !79
  %18 = load ptr, ptr %3, align 8, !tbaa !92
  %19 = getelementptr inbounds nuw %"struct.duckdb_zstd::ZSTD_CDict_s", ptr %18, i32 0, i32 4
  call void @llvm.memcpy.p0.p0.i64(ptr align 8 %6, ptr align 8 %4, i64 24, i1 false), !tbaa.struct !7
  call void @_ZN11duckdb_zstdL15ZSTD_cwksp_freeEPNS_10ZSTD_cwkspENS_14ZSTD_customMemE(ptr noundef %19, ptr noundef byval(%"struct.duckdb_zstd::ZSTD_customMem") align 8 %6)
  %20 = load i32, ptr %5, align 4, !tbaa !79
  %21 = icmp ne i32 %20, 0
  br i1 %21, label %24, label %22

22:                                               ; preds = %11
  %23 = load ptr, ptr %3, align 8, !tbaa !92
  call void @llvm.memcpy.p0.p0.i64(ptr align 8 %7, ptr align 8 %4, i64 24, i1 false), !tbaa.struct !7
  call void @_ZN11duckdb_zstdL15ZSTD_customFreeEPvNS_14ZSTD_customMemE(ptr noundef %23, ptr noundef byval(%"struct.duckdb_zstd::ZSTD_customMem") align 8 %7)
  br label %24

24:                                               ; preds = %22, %11
  store i64 0, ptr %2, align 8
  call void @llvm.lifetime.end.p0(i64 4, ptr %5) #16
  call void @llvm.lifetime.end.p0(i64 24, ptr %4) #16
  br label %25

25:                                               ; preds = %24, %10
  %26 = load i64, ptr %2, align 8
  ret i64 %26
}

; Function Attrs: inlinehint mustprogress uwtable
define internal void @_ZN11duckdb_zstdL15ZSTD_customFreeEPvNS_14ZSTD_customMemE(ptr noundef %0, ptr noundef byval(%"struct.duckdb_zstd::ZSTD_customMem") align 8 %1) #4 {
  %3 = alloca ptr, align 8
  store ptr %0, ptr %3, align 8, !tbaa !8
  %4 = load ptr, ptr %3, align 8, !tbaa !8
  %5 = icmp ne ptr %4, null
  br i1 %5, label %6, label %19

6:                                                ; preds = %2
  %7 = getelementptr inbounds nuw %"struct.duckdb_zstd::ZSTD_customMem", ptr %1, i32 0, i32 1
  %8 = load ptr, ptr %7, align 8, !tbaa !12
  %9 = icmp ne ptr %8, null
  br i1 %9, label %10, label %16

10:                                               ; preds = %6
  %11 = getelementptr inbounds nuw %"struct.duckdb_zstd::ZSTD_customMem", ptr %1, i32 0, i32 1
  %12 = load ptr, ptr %11, align 8, !tbaa !12
  %13 = getelementptr inbounds nuw %"struct.duckdb_zstd::ZSTD_customMem", ptr %1, i32 0, i32 2
  %14 = load ptr, ptr %13, align 8, !tbaa !15
  %15 = load ptr, ptr %3, align 8, !tbaa !8
  call void %12(ptr noundef %14, ptr noundef %15)
  br label %18

16:                                               ; preds = %6
  %17 = load ptr, ptr %3, align 8, !tbaa !8
  call void @free(ptr noundef %17) #16
  br label %18

18:                                               ; preds = %16, %10
  br label %19

19:                                               ; preds = %18, %2
  ret void
}

; Function Attrs: mustprogress uwtable
define internal void @_ZN11duckdb_zstdL18ZSTD_clearAllDictsEPNS_11ZSTD_CCtx_sE(ptr noundef %0) #2 {
  %2 = alloca ptr, align 8
  %3 = alloca %"struct.duckdb_zstd::ZSTD_customMem", align 8
  store ptr %0, ptr %2, align 8, !tbaa !13
  %4 = load ptr, ptr %2, align 8, !tbaa !13
  %5 = getelementptr inbounds nuw %"struct.duckdb_zstd::ZSTD_CCtx_s", ptr %4, i32 0, i32 42
  %6 = getelementptr inbounds nuw %"struct.duckdb_zstd::ZSTD_localDict", ptr %5, i32 0, i32 0
  %7 = load ptr, ptr %6, align 8, !tbaa !167
  %8 = load ptr, ptr %2, align 8, !tbaa !13
  %9 = getelementptr inbounds nuw %"struct.duckdb_zstd::ZSTD_CCtx_s", ptr %8, i32 0, i32 14
  call void @llvm.memcpy.p0.p0.i64(ptr align 8 %3, ptr align 8 %9, i64 24, i1 false), !tbaa.struct !7
  call void @_ZN11duckdb_zstdL15ZSTD_customFreeEPvNS_14ZSTD_customMemE(ptr noundef %7, ptr noundef byval(%"struct.duckdb_zstd::ZSTD_customMem") align 8 %3)
  %10 = load ptr, ptr %2, align 8, !tbaa !13
  %11 = getelementptr inbounds nuw %"struct.duckdb_zstd::ZSTD_CCtx_s", ptr %10, i32 0, i32 42
  %12 = getelementptr inbounds nuw %"struct.duckdb_zstd::ZSTD_localDict", ptr %11, i32 0, i32 4
  %13 = load ptr, ptr %12, align 8, !tbaa !170
  %14 = call noundef i64 @_ZN11duckdb_zstd14ZSTD_freeCDictEPNS_12ZSTD_CDict_sE(ptr noundef %13)
  %15 = load ptr, ptr %2, align 8, !tbaa !13
  %16 = getelementptr inbounds nuw %"struct.duckdb_zstd::ZSTD_CCtx_s", ptr %15, i32 0, i32 42
  call void @llvm.memset.p0.i64(ptr align 8 %16, i8 0, i64 40, i1 false)
  %17 = load ptr, ptr %2, align 8, !tbaa !13
  %18 = getelementptr inbounds nuw %"struct.duckdb_zstd::ZSTD_CCtx_s", ptr %17, i32 0, i32 44
  call void @llvm.memset.p0.i64(ptr align 8 %18, i8 0, i64 24, i1 false)
  %19 = load ptr, ptr %2, align 8, !tbaa !13
  %20 = getelementptr inbounds nuw %"struct.duckdb_zstd::ZSTD_CCtx_s", ptr %19, i32 0, i32 43
  store ptr null, ptr %20, align 8, !tbaa !154
  ret void
}