; Function Attrs: mustprogress uwtable
define internal fastcc void @_ZN11duckdb_zstdL18ZSTD_clearAllDictsEPNS_11ZSTD_CCtx_sE(ptr noundef captures(none) initializes((3664, 3688), (3696, 3728)) %0) unnamed_addr #2 {
  %2 = getelementptr inbounds nuw i8, ptr %0, i64 3656
  %3 = load ptr, ptr %2, align 8, !tbaa !137
  %.sroa.1.0..sroa_idx = getelementptr inbounds nuw i8, ptr %0, i64 880
  %.sroa.1.0.copyload = load ptr, ptr %.sroa.1.0..sroa_idx, align 8, !tbaa !61
  %.sroa.2.0..sroa_idx = getelementptr inbounds nuw i8, ptr %0, i64 888
  %.sroa.2.0.copyload = load ptr, ptr %.sroa.2.0..sroa_idx, align 8, !tbaa !61
  %.not.i = icmp eq ptr %3, null
  br i1 %.not.i, label %_ZN11duckdb_zstdL15ZSTD_customFreeEPvNS_14ZSTD_customMemE.exit, label %4

4:                                                ; preds = %1
  %.not4.i = icmp eq ptr %.sroa.1.0.copyload, null
  br i1 %.not4.i, label %6, label %5

5:                                                ; preds = %4
  tail call void %.sroa.1.0.copyload(ptr noundef %.sroa.2.0.copyload, ptr noundef nonnull %3)
  br label %_ZN11duckdb_zstdL15ZSTD_customFreeEPvNS_14ZSTD_customMemE.exit

6:                                                ; preds = %4
  tail call void @free(ptr noundef nonnull %3) #28
  br label %_ZN11duckdb_zstdL15ZSTD_customFreeEPvNS_14ZSTD_customMemE.exit

_ZN11duckdb_zstdL15ZSTD_customFreeEPvNS_14ZSTD_customMemE.exit: ; preds = %1, %5, %6
  %7 = getelementptr inbounds nuw i8, ptr %0, i64 3688
  %8 = load ptr, ptr %7, align 8, !tbaa !141
  %9 = icmp eq ptr %8, null
  br i1 %9, label %_ZN11duckdb_zstd14ZSTD_freeCDictEPNS_12ZSTD_CDict_sE.exit, label %10

10:                                               ; preds = %_ZN11duckdb_zstdL15ZSTD_customFreeEPvNS_14ZSTD_customMemE.exit
  %.sroa.5.0..sroa_idx.i = getelementptr inbounds nuw i8, ptr %8, i64 6048
  %.sroa.5.0.copyload.i = load ptr, ptr %.sroa.5.0..sroa_idx.i, align 8, !tbaa !61
  %.sroa.6.0..sroa_idx.i = getelementptr inbounds nuw i8, ptr %8, i64 6056
  %.sroa.6.0.copyload.i = load ptr, ptr %.sroa.6.0..sroa_idx.i, align 8, !tbaa !61
  %11 = getelementptr inbounds nuw i8, ptr %8, i64 32
  %12 = load ptr, ptr %11, align 8, !tbaa !72
  %.not.i.i = icmp ugt ptr %12, %8
  br i1 %.not.i.i, label %_ZN11duckdb_zstdL22ZSTD_cwksp_owns_bufferEPKNS_10ZSTD_cwkspEPKv.exit.i, label %13

13:                                               ; preds = %10
  %14 = getelementptr inbounds nuw i8, ptr %8, i64 40
  %15 = load ptr, ptr %14, align 8, !tbaa !73
  %16 = icmp uge ptr %8, %15
  br label %_ZN11duckdb_zstdL22ZSTD_cwksp_owns_bufferEPKNS_10ZSTD_cwkspEPKv.exit.i

_ZN11duckdb_zstdL22ZSTD_cwksp_owns_bufferEPKNS_10ZSTD_cwkspEPKv.exit.i: ; preds = %13, %10
  %.not.i7 = phi i1 [ true, %10 ], [ %16, %13 ]
  tail call void @llvm.memset.p0.i64(ptr noundef nonnull align 8 dereferenceable(72) %11, i8 0, i64 72, i1 false)
  %.not.i.i.i = icmp eq ptr %12, null
  br i1 %.not.i.i.i, label %_ZN11duckdb_zstdL15ZSTD_cwksp_freeEPNS_10ZSTD_cwkspENS_14ZSTD_customMemE.exit.i, label %17

17:                                               ; preds = %_ZN11duckdb_zstdL22ZSTD_cwksp_owns_bufferEPKNS_10ZSTD_cwkspEPKv.exit.i
  %.not4.i.i.i = icmp eq ptr %.sroa.5.0.copyload.i, null
  br i1 %.not4.i.i.i, label %_ZN11duckdb_zstdL15ZSTD_cwksp_freeEPNS_10ZSTD_cwkspENS_14ZSTD_customMemE.exit.thread.i, label %18

18:                                               ; preds = %17
  tail call void %.sroa.5.0.copyload.i(ptr noundef %.sroa.6.0.copyload.i, ptr noundef nonnull %12)
  br label %_ZN11duckdb_zstdL15ZSTD_cwksp_freeEPNS_10ZSTD_cwkspENS_14ZSTD_customMemE.exit.i

_ZN11duckdb_zstdL15ZSTD_cwksp_freeEPNS_10ZSTD_cwkspENS_14ZSTD_customMemE.exit.i: ; preds = %18, %_ZN11duckdb_zstdL22ZSTD_cwksp_owns_bufferEPKNS_10ZSTD_cwkspEPKv.exit.i
  br i1 %.not.i7, label %19, label %_ZN11duckdb_zstd14ZSTD_freeCDictEPNS_12ZSTD_CDict_sE.exit

_ZN11duckdb_zstdL15ZSTD_cwksp_freeEPNS_10ZSTD_cwkspENS_14ZSTD_customMemE.exit.thread.i: ; preds = %17
  tail call void @free(ptr noundef nonnull %12) #28
  br i1 %.not.i7, label %.thread.i, label %_ZN11duckdb_zstd14ZSTD_freeCDictEPNS_12ZSTD_CDict_sE.exit

19:                                               ; preds = %_ZN11duckdb_zstdL15ZSTD_cwksp_freeEPNS_10ZSTD_cwkspENS_14ZSTD_customMemE.exit.i
  %.not4.i.i = icmp eq ptr %.sroa.5.0.copyload.i, null
  br i1 %.not4.i.i, label %.thread.i, label %20

20:                                               ; preds = %19
  tail call void %.sroa.5.0.copyload.i(ptr noundef %.sroa.6.0.copyload.i, ptr noundef nonnull %8)
  br label %_ZN11duckdb_zstd14ZSTD_freeCDictEPNS_12ZSTD_CDict_sE.exit

.thread.i:                                        ; preds = %19, %_ZN11duckdb_zstdL15ZSTD_cwksp_freeEPNS_10ZSTD_cwkspENS_14ZSTD_customMemE.exit.thread.i
  tail call void @free(ptr noundef nonnull %8) #28
  br label %_ZN11duckdb_zstd14ZSTD_freeCDictEPNS_12ZSTD_CDict_sE.exit

_ZN11duckdb_zstd14ZSTD_freeCDictEPNS_12ZSTD_CDict_sE.exit: ; preds = %_ZN11duckdb_zstdL15ZSTD_customFreeEPvNS_14ZSTD_customMemE.exit, %_ZN11duckdb_zstdL15ZSTD_cwksp_freeEPNS_10ZSTD_cwkspENS_14ZSTD_customMemE.exit.i, %_ZN11duckdb_zstdL15ZSTD_cwksp_freeEPNS_10ZSTD_cwkspENS_14ZSTD_customMemE.exit.thread.i, %20, %.thread.i
  tail call void @llvm.memset.p0.i64(ptr noundef nonnull align 8 dereferenceable(72) %2, i8 0, i64 72, i1 false)
  ret void
}